target datalayout = "e-m:e-p270:32:32-p271:32:32-p272:64:64-i64:64-i128:128-f80:128-n8:16:32:64-S128"
target triple = "x86_64-pc-linux-gnu"

%struct.HYuvDecContext = type { %struct.GetBitContext, i32, i32, i32, i32, i32, i32, i32, i32, i32, i32, i32, i32, i32, i32, i32, i32, i32, i32, %union.anon.1, [4 x [16384 x i8]], [4 x [16384 x i32]], [4096 x i32], [8 x %struct.VLC], ptr, i32, %struct.BswapDSPContext, %struct.HuffYUVDSPContext, %struct.LLVidDSPContext }
%struct.GetBitContext = type { ptr, ptr, i32, i32, i32 }
%union.anon.1 = type { [3 x ptr] }
%struct.VLC = type { i32, ptr, i32, i32 }
%struct.BswapDSPContext = type { ptr, ptr }
%struct.HuffYUVDSPContext = type { ptr, ptr, ptr }
%struct.LLVidDSPContext = type { ptr, ptr, ptr, ptr, ptr }
%struct.GetByteContext = type { ptr, ptr, ptr }

@.str.6 = private unnamed_addr constant [30 x i8] c"Assertion %s failed at %s:%d\0A\00", align 1
@.str.11 = private unnamed_addr constant [14 x i8] c"buf_size >= 0\00", align 1
@.str.12 = private unnamed_addr constant [24 x i8] c"libavcodec/bytestream.h\00", align 1
@.str.13 = private unnamed_addr constant [29 x i8] c"Error reading huffman table\0A\00", align 1

; Function Attrs: alwaysinline nounwind uwtable
define internal i32 @bytestream_get_byte(ptr noundef %0) #5 {
  %2 = alloca ptr, align 8
  store ptr %0, ptr %2, align 8, !tbaa !101
  %3 = load ptr, ptr %2, align 8, !tbaa !101
  %4 = load ptr, ptr %3, align 8, !tbaa !71
  %5 = getelementptr inbounds i8, ptr %4, i64 1
  store ptr %5, ptr %3, align 8, !tbaa !71
  %6 = load ptr, ptr %2, align 8, !tbaa !101
  %7 = load ptr, ptr %6, align 8, !tbaa !71
  %8 = getelementptr inbounds i8, ptr %7, i64 -1
  %9 = getelementptr inbounds i8, ptr %8, i64 0
  %10 = load i8, ptr %9, align 1, !tbaa !48
  %11 = zext i8 %10 to i32
  ret i32 %11
}

; Function Attrs: alwaysinline nounwind uwtable
define internal i32 @bytestream2_get_byteu(ptr noundef %0) #5 {
  %2 = alloca ptr, align 8
  store ptr %0, ptr %2, align 8, !tbaa !84
  %3 = load ptr, ptr %2, align 8, !tbaa !84
  %4 = getelementptr inbounds nuw %struct.GetByteContext, ptr %3, i32 0, i32 0
  %5 = call i32 @bytestream_get_byte(ptr noundef %4)
  ret i32 %5
}

; Function Attrs: alwaysinline nounwind uwtable
define internal i32 @bytestream2_peek_byteu(ptr noundef %0) #5 {
  %2 = alloca ptr, align 8
  store ptr %0, ptr %2, align 8, !tbaa !84
  %3 = load ptr, ptr %2, align 8, !tbaa !84
  %4 = getelementptr inbounds nuw %struct.GetByteContext, ptr %3, i32 0, i32 0
  %5 = load ptr, ptr %4, align 8, !tbaa !86
  %6 = getelementptr inbounds i8, ptr %5, i64 0
  %7 = load i8, ptr %6, align 1, !tbaa !48
  %8 = zext i8 %7 to i32
  ret i32 %8
}

; Function Attrs: alwaysinline nounwind uwtable
define internal i32 @bytestream2_get_bytes_left(ptr noundef %0) #5 {
  %2 = alloca ptr, align 8
  store ptr %0, ptr %2, align 8, !tbaa !84
  %3 = load ptr, ptr %2, align 8, !tbaa !84
  %4 = getelementptr inbounds nuw %struct.GetByteContext, ptr %3, i32 0, i32 1
  %5 = load ptr, ptr %4, align 8, !tbaa !89
  %6 = load ptr, ptr %2, align 8, !tbaa !84
  %7 = getelementptr inbounds nuw %struct.GetByteContext, ptr %6, i32 0, i32 0
  %8 = load ptr, ptr %7, align 8, !tbaa !86
  %9 = ptrtoint ptr %5 to i64
  %10 = ptrtoint ptr %8 to i64
  %11 = sub i64 %9, %10
  %12 = trunc i64 %11 to i32
  ret i32 %12
}

; Function Attrs: alwaysinline nounwind uwtable
define internal i32 @bytestream2_tell(ptr noundef %0) #5 {
  %2 = alloca ptr, align 8
  store ptr %0, ptr %2, align 8, !tbaa !84
  %3 = load ptr, ptr %2, align 8, !tbaa !84
  %4 = getelementptr inbounds nuw %struct.GetByteContext, ptr %3, i32 0, i32 0
  %5 = load ptr, ptr %4, align 8, !tbaa !86
  %6 = load ptr, ptr %2, align 8, !tbaa !84
  %7 = getelementptr inbounds nuw %struct.GetByteContext, ptr %6, i32 0, i32 2
  %8 = load ptr, ptr %7, align 8, !tbaa !88
  %9 = ptrtoint ptr %5 to i64
  %10 = ptrtoint ptr %8 to i64
  %11 = sub i64 %9, %10
  %12 = trunc i64 %11 to i32
  ret i32 %12
}

; Function Attrs: nounwind uwtable
define internal i32 @read_len_table(ptr noundef %0, ptr noundef %1, i32 noundef %2) #1 {
  %4 = alloca i32, align 4
  %5 = alloca ptr, align 8
  %6 = alloca ptr, align 8
  %7 = alloca i32, align 4
  %8 = alloca i32, align 4
  %9 = alloca i32, align 4
  %10 = alloca i32, align 4
  %11 = alloca i32, align 4
  store ptr %0, ptr %5, align 8, !tbaa !71
  store ptr %1, ptr %6, align 8, !tbaa !84
  store i32 %2, ptr %7, align 4, !tbaa !33
  call void @llvm.lifetime.start.p0(i64 4, ptr %8) #10
  call void @llvm.lifetime.start.p0(i64 4, ptr %9) #10
  call void @llvm.lifetime.start.p0(i64 4, ptr %10) #10
  store i32 0, ptr %8, align 4, !tbaa !33
  br label %12

12:                                               ; preds = %58, %3
  %13 = load i32, ptr %8, align 4, !tbaa !33
  %14 = load i32, ptr %7, align 4, !tbaa !33
  %15 = icmp slt i32 %13, %14
  br i1 %15, label %16, label %59

16:                                               ; preds = %12
  %17 = load ptr, ptr %6, align 8, !tbaa !84
  %18 = call i32 @bytestream2_get_bytes_left(ptr noundef %17)
  %19 = icmp sle i32 %18, 0
  br i1 %19, label %20, label %21

20:                                               ; preds = %16
  br label %60

21:                                               ; preds = %16
  %22 = load ptr, ptr %6, align 8, !tbaa !84
  %23 = call i32 @bytestream2_peek_byteu(ptr noundef %22)
  %24 = lshr i32 %23, 5
  store i32 %24, ptr %10, align 4, !tbaa !33
  %25 = load ptr, ptr %6, align 8, !tbaa !84
  %26 = call i32 @bytestream2_get_byteu(ptr noundef %25)
  %27 = and i32 %26, 31
  store i32 %27, ptr %9, align 4, !tbaa !33
  %28 = load i32, ptr %10, align 4, !tbaa !33
  %29 = icmp eq i32 %28, 0
  br i1 %29, label %30, label %38

30:                                               ; preds = %21
  %31 = load ptr, ptr %6, align 8, !tbaa !84
  %32 = call i32 @bytestream2_get_bytes_left(ptr noundef %31)
  %33 = icmp sle i32 %32, 0
  br i1 %33, label %34, label %35

34:                                               ; preds = %30
  br label %60

35:                                               ; preds = %30
  %36 = load ptr, ptr %6, align 8, !tbaa !84
  %37 = call i32 @bytestream2_get_byteu(ptr noundef %36)
  store i32 %37, ptr %10, align 4, !tbaa !33
  br label %38

38:                                               ; preds = %35, %21
  %39 = load i32, ptr %8, align 4, !tbaa !33
  %40 = load i32, ptr %10, align 4, !tbaa !33
  %41 = add nsw i32 %39, %40
  %42 = load i32, ptr %7, align 4, !tbaa !33
  %43 = icmp sgt i32 %41, %42
  br i1 %43, label %44, label %45

44:                                               ; preds = %38
  br label %60

45:                                               ; preds = %38
  br label %46

46:                                               ; preds = %50, %45
  %47 = load i32, ptr %10, align 4, !tbaa !33
  %48 = add nsw i32 %47, -1
  store i32 %48, ptr %10, align 4, !tbaa !33
  %49 = icmp ne i32 %47, 0
  br i1 %49, label %50, label %58

50:                                               ; preds = %46
  %51 = load i32, ptr %9, align 4, !tbaa !33
  %52 = trunc i32 %51 to i8
  %53 = load ptr, ptr %5, align 8, !tbaa !71
  %54 = load i32, ptr %8, align 4, !tbaa !33
  %55 = add nsw i32 %54, 1
  store i32 %55, ptr %8, align 4, !tbaa !33
  %56 = sext i32 %54 to i64
  %57 = getelementptr inbounds i8, ptr %53, i64 %56
  store i8 %52, ptr %57, align 1, !tbaa !48
  br label %46, !llvm.loop !90

58:                                               ; preds = %46
  br label %12, !llvm.loop !91

59:                                               ; preds = %12
  store i32 0, ptr %4, align 4
  store i32 1, ptr %11, align 4
  br label %61

60:                                               ; preds = %44, %34, %20
  call void (ptr, i32, ptr, ...) @av_log(ptr noundef null, i32 noundef 16, ptr noundef @.str.13)
  store i32 -1094995529, ptr %4, align 4
  store i32 1, ptr %11, align 4
  br label %61

61:                                               ; preds = %60, %59
  call void @llvm.lifetime.end.p0(i64 4, ptr %10) #10
  call void @llvm.lifetime.end.p0(i64 4, ptr %9) #10
  call void @llvm.lifetime.end.p0(i64 4, ptr %8) #10
  %62 = load i32, ptr %4, align 4
  ret i32 %62
}

; Function Attrs: alwaysinline nounwind uwtable
define internal void @bytestream2_init(ptr noundef %0, ptr noundef %1, i32 noundef %2) #5 {
  %4 = alloca ptr, align 8
  %5 = alloca ptr, align 8
  %6 = alloca i32, align 4
  store ptr %0, ptr %4, align 8, !tbaa !84
  store ptr %1, ptr %5, align 8, !tbaa !71
  store i32 %2, ptr %6, align 4, !tbaa !33
  br label %7

7:                                                ; preds = %3
  %8 = load i32, ptr %6, align 4, !tbaa !33
  %9 = icmp sge i32 %8, 0
  br i1 %9, label %11, label %10

10:                                               ; preds = %7
  call void (ptr, i32, ptr, ...) @av_log(ptr noundef null, i32 noundef 0, ptr noundef @.str.6, ptr noundef @.str.11, ptr noundef @.str.12, i32 noundef 141)
  call void @abort() #11
  unreachable

11:                                               ; preds = %7
  br label %12

12:                                               ; preds = %11
  %13 = load ptr, ptr %5, align 8, !tbaa !71
  %14 = load ptr, ptr %4, align 8, !tbaa !84
  %15 = getelementptr inbounds nuw %struct.GetByteContext, ptr %14, i32 0, i32 0
  store ptr %13, ptr %15, align 8, !tbaa !86
  %16 = load ptr, ptr %5, align 8, !tbaa !71
  %17 = load ptr, ptr %4, align 8, !tbaa !84
  %18 = getelementptr inbounds nuw %struct.GetByteContext, ptr %17, i32 0, i32 2
  store ptr %16, ptr %18, align 8, !tbaa !88
  %19 = load ptr, ptr %5, align 8, !tbaa !71
  %20 = load i32, ptr %6, align 4, !tbaa !33
  %21 = sext i32 %20 to i64
  %22 = getelementptr inbounds i8, ptr %19, i64 %21
  %23 = load ptr, ptr %4, align 8, !tbaa !84
  %24 = getelementptr inbounds nuw %struct.GetByteContext, ptr %23, i32 0, i32 1
  store ptr %22, ptr %24, align 8, !tbaa !89
  ret void
}

; Function Attrs: nounwind uwtable
define internal i32 @read_huffman_tables(ptr noundef %0, ptr noundef %1, i32 noundef %2) #1 {
  %4 = alloca i32, align 4
  %5 = alloca ptr, align 8
  %6 = alloca ptr, align 8
  %7 = alloca i32, align 4
  %8 = alloca %struct.GetByteContext, align 8
  %9 = alloca i32, align 4
  %10 = alloca i32, align 4
  %11 = alloca i32, align 4
  %12 = alloca i32, align 4
  store ptr %0, ptr %5, align 8, !tbaa !29
  store ptr %1, ptr %6, align 8, !tbaa !71
  store i32 %2, ptr %7, align 4, !tbaa !33
  call void @llvm.lifetime.start.p0(i64 24, ptr %8) #10
  call void @llvm.lifetime.start.p0(i64 4, ptr %9) #10
  call void @llvm.lifetime.start.p0(i64 4, ptr %10) #10
  call void @llvm.lifetime.start.p0(i64 4, ptr %11) #10
  store i32 3, ptr %11, align 4, !tbaa !33
  %13 = load ptr, ptr %6, align 8, !tbaa !71
  %14 = load i32, ptr %7, align 4, !tbaa !33
  call void @bytestream2_init(ptr noundef %8, ptr noundef %13, i32 noundef %14)
  %15 = load ptr, ptr %5, align 8, !tbaa !29
  %16 = getelementptr inbounds nuw %struct.HYuvDecContext, ptr %15, i32 0, i32 5
  %17 = load i32, ptr %16, align 8, !tbaa !46
  %18 = icmp sgt i32 %17, 2
  br i1 %18, label %19, label %29

19:                                               ; preds = %3
  %20 = load ptr, ptr %5, align 8, !tbaa !29
  %21 = getelementptr inbounds nuw %struct.HYuvDecContext, ptr %20, i32 0, i32 11
  %22 = load i32, ptr %21, align 8, !tbaa !59
  %23 = add nsw i32 1, %22
  %24 = load ptr, ptr %5, align 8, !tbaa !29
  %25 = getelementptr inbounds nuw %struct.HYuvDecContext, ptr %24, i32 0, i32 12
  %26 = load i32, ptr %25, align 4, !tbaa !52
  %27 = mul nsw i32 2, %26
  %28 = add nsw i32 %23, %27
  store i32 %28, ptr %11, align 4, !tbaa !33
  br label %29

29:                                               ; preds = %19, %3
  store i32 0, ptr %9, align 4, !tbaa !33
  br label %30

30:                                               ; preds = %99, %29
  %31 = load i32, ptr %9, align 4, !tbaa !33
  %32 = load i32, ptr %11, align 4, !tbaa !33
  %33 = icmp slt i32 %31, %32
  br i1 %33, label %34, label %102

34:                                               ; preds = %30
  %35 = load ptr, ptr %5, align 8, !tbaa !29
  %36 = getelementptr inbounds nuw %struct.HYuvDecContext, ptr %35, i32 0, i32 20
  %37 = load i32, ptr %9, align 4, !tbaa !33
  %38 = sext i32 %37 to i64
  %39 = getelementptr inbounds [4 x [16384 x i8]], ptr %36, i64 0, i64 %38
  %40 = getelementptr inbounds [16384 x i8], ptr %39, i64 0, i64 0
  %41 = load ptr, ptr %5, align 8, !tbaa !29
  %42 = getelementptr inbounds nuw %struct.HYuvDecContext, ptr %41, i32 0, i32 10
  %43 = load i32, ptr %42, align 4, !tbaa !51
  %44 = call i32 @read_len_table(ptr noundef %40, ptr noundef %8, i32 noundef %43)
  store i32 %44, ptr %10, align 4, !tbaa !33
  %45 = icmp slt i32 %44, 0
  br i1 %45, label %46, label %48

46:                                               ; preds = %34
  %47 = load i32, ptr %10, align 4, !tbaa !33
  store i32 %47, ptr %4, align 4
  store i32 1, ptr %12, align 4
  br label %110

48:                                               ; preds = %34
  %49 = load ptr, ptr %5, align 8, !tbaa !29
  %50 = getelementptr inbounds nuw %struct.HYuvDecContext, ptr %49, i32 0, i32 21
  %51 = load i32, ptr %9, align 4, !tbaa !33
  %52 = sext i32 %51 to i64
  %53 = getelementptr inbounds [4 x [16384 x i32]], ptr %50, i64 0, i64 %52
  %54 = getelementptr inbounds [16384 x i32], ptr %53, i64 0, i64 0
  %55 = load ptr, ptr %5, align 8, !tbaa !29
  %56 = getelementptr inbounds nuw %struct.HYuvDecContext, ptr %55, i32 0, i32 20
  %57 = load i32, ptr %9, align 4, !tbaa !33
  %58 = sext i32 %57 to i64
  %59 = getelementptr inbounds [4 x [16384 x i8]], ptr %56, i64 0, i64 %58
  %60 = getelementptr inbounds [16384 x i8], ptr %59, i64 0, i64 0
  %61 = load ptr, ptr %5, align 8, !tbaa !29
  %62 = getelementptr inbounds nuw %struct.HYuvDecContext, ptr %61, i32 0, i32 10
  %63 = load i32, ptr %62, align 4, !tbaa !51
  %64 = call i32 @ff_huffyuv_generate_bits_table(ptr noundef %54, ptr noundef %60, i32 noundef %63)
  store i32 %64, ptr %10, align 4, !tbaa !33
  %65 = icmp slt i32 %64, 0
  br i1 %65, label %66, label %68

66:                                               ; preds = %48
  %67 = load i32, ptr %10, align 4, !tbaa !33
  store i32 %67, ptr %4, align 4
  store i32 1, ptr %12, align 4
  br label %110

68:                                               ; preds = %48
  %69 = load ptr, ptr %5, align 8, !tbaa !29
  %70 = getelementptr inbounds nuw %struct.HYuvDecContext, ptr %69, i32 0, i32 23
  %71 = load i32, ptr %9, align 4, !tbaa !33
  %72 = sext i32 %71 to i64
  %73 = getelementptr inbounds [8 x %struct.VLC], ptr %70, i64 0, i64 %72
  call void @ff_vlc_free(ptr noundef %73)
  %74 = load ptr, ptr %5, align 8, !tbaa !29
  %75 = getelementptr inbounds nuw %struct.HYuvDecContext, ptr %74, i32 0, i32 23
  %76 = load i32, ptr %9, align 4, !tbaa !33
  %77 = sext i32 %76 to i64
  %78 = getelementptr inbounds [8 x %struct.VLC], ptr %75, i64 0, i64 %77
  %79 = load ptr, ptr %5, align 8, !tbaa !29
  %80 = getelementptr inbounds nuw %struct.HYuvDecContext, ptr %79, i32 0, i32 10
  %81 = load i32, ptr %80, align 4, !tbaa !51
  %82 = load ptr, ptr %5, align 8, !tbaa !29
  %83 = getelementptr inbounds nuw %struct.HYuvDecContext, ptr %82, i32 0, i32 20
  %84 = load i32, ptr %9, align 4, !tbaa !33
  %85 = sext i32 %84 to i64
  %86 = getelementptr inbounds [4 x [16384 x i8]], ptr %83, i64 0, i64 %85
  %87 = getelementptr inbounds [16384 x i8], ptr %86, i64 0, i64 0
  %88 = load ptr, ptr %5, align 8, !tbaa !29
  %89 = getelementptr inbounds nuw %struct.HYuvDecContext, ptr %88, i32 0, i32 21
  %90 = load i32, ptr %9, align 4, !tbaa !33
  %91 = sext i32 %90 to i64
  %92 = getelementptr inbounds [4 x [16384 x i32]], ptr %89, i64 0, i64 %91
  %93 = getelementptr inbounds [16384 x i32], ptr %92, i64 0, i64 0
  %94 = call i32 @ff_vlc_init_sparse(ptr noundef %78, i32 noundef 12, i32 noundef %81, ptr noundef %87, i32 noundef 1, i32 noundef 1, ptr noundef %93, i32 noundef 4, i32 noundef 4, ptr noundef null, i32 noundef 0, i32 noundef 0, i32 noundef 0)
  store i32 %94, ptr %10, align 4, !tbaa !33
  %95 = icmp slt i32 %94, 0
  br i1 %95, label %96, label %98

96:                                               ; preds = %68
  %97 = load i32, ptr %10, align 4, !tbaa !33
  store i32 %97, ptr %4, align 4
  store i32 1, ptr %12, align 4
  br label %110

98:                                               ; preds = %68
  br label %99

99:                                               ; preds = %98
  %100 = load i32, ptr %9, align 4, !tbaa !33
  %101 = add nsw i32 %100, 1
  store i32 %101, ptr %9, align 4, !tbaa !33
  br label %30, !llvm.loop !80

102:                                              ; preds = %30
  %103 = load ptr, ptr %5, align 8, !tbaa !29
  %104 = call i32 @generate_joint_tables(ptr noundef %103)
  store i32 %104, ptr %10, align 4, !tbaa !33
  %105 = icmp slt i32 %104, 0
  br i1 %105, label %106, label %108

106:                                              ; preds = %102
  %107 = load i32, ptr %10, align 4, !tbaa !33
  store i32 %107, ptr %4, align 4
  store i32 1, ptr %12, align 4
  br label %110

108:                                              ; preds = %102
  %109 = call i32 @bytestream2_tell(ptr noundef %8)
  store i32 %109, ptr %4, align 4
  store i32 1, ptr %12, align 4
  br label %110

110:                                              ; preds = %108, %106, %96, %66, %46
  call void @llvm.lifetime.end.p0(i64 4, ptr %11) #10
  call void @llvm.lifetime.end.p0(i64 4, ptr %10) #10
  call void @llvm.lifetime.end.p0(i64 4, ptr %9) #10
  call void @llvm.lifetime.end.p0(i64 24, ptr %8) #10
  %111 = load i32, ptr %4, align 4
  ret i32 %111
}