; Function Attrs: nounwind uwtable
define internal fastcc i32 @read_huffman_tables(ptr noundef %0, ptr noundef %1, i32 noundef %2) unnamed_addr #1 {
  %4 = icmp sgt i32 %2, -1
  br i1 %4, label %bytestream2_init.exit, label %5

5:                                                ; preds = %3
  tail call void (ptr, i32, ptr, ...) @av_log(ptr noundef null, i32 noundef 0, ptr noundef nonnull @.str.6, ptr noundef nonnull @.str.11, ptr noundef nonnull @.str.12, i32 noundef 141) #9
  tail call void @abort() #10
  unreachable

bytestream2_init.exit:                            ; preds = %3
  %6 = zext nneg i32 %2 to i64
  %7 = getelementptr inbounds nuw i8, ptr %1, i64 %6
  %8 = getelementptr inbounds nuw i8, ptr %0, i64 48
  %9 = load i32, ptr %8, align 8, !tbaa !41
  %10 = icmp sgt i32 %9, 2
  br i1 %10, label %11, label %.lr.ph

11:                                               ; preds = %bytestream2_init.exit
  %12 = getelementptr inbounds nuw i8, ptr %0, i64 72
  %13 = load i32, ptr %12, align 8, !tbaa !54
  %14 = add nsw i32 %13, 1
  %15 = getelementptr inbounds nuw i8, ptr %0, i64 76
  %16 = load i32, ptr %15, align 4, !tbaa !45
  %17 = shl nsw i32 %16, 1
  %18 = add nsw i32 %14, %17
  %19 = icmp sgt i32 %18, 0
  br i1 %19, label %.lr.ph, label %._crit_edge

.lr.ph:                                           ; preds = %bytestream2_init.exit, %11
  %.048 = phi i32 [ %18, %11 ], [ 3, %bytestream2_init.exit ]
  %20 = getelementptr inbounds nuw i8, ptr %0, i64 128
  %21 = getelementptr inbounds nuw i8, ptr %0, i64 68
  %22 = ptrtoint ptr %7 to i64
  %23 = getelementptr inbounds nuw i8, ptr %0, i64 65664
  %24 = getelementptr inbounds nuw i8, ptr %0, i64 344192
  %wide.trip.count = zext nneg i32 %.048 to i64
  br label %26

25:                                               ; preds = %58
  %indvars.iv.next = add nuw nsw i64 %indvars.iv, 1
  %exitcond.not = icmp eq i64 %indvars.iv.next, %wide.trip.count
  br i1 %exitcond.not, label %._crit_edge, label %26, !llvm.loop !95

26:                                               ; preds = %.lr.ph, %25
  %indvars.iv = phi i64 [ 0, %.lr.ph ], [ %indvars.iv.next, %25 ]
  %.sroa.0.043 = phi ptr [ %1, %.lr.ph ], [ %.sroa.0.4.ph, %25 ]
  %27 = getelementptr inbounds nuw [4 x [16384 x i8]], ptr %20, i64 0, i64 %indvars.iv
  %28 = load i32, ptr %21, align 4, !tbaa !44
  %29 = icmp sgt i32 %28, 0
  br i1 %29, label %.lr.ph25.i, label %.loopexit

.loopexit.i:                                      ; preds = %.lr.ph.i, %.preheader.i
  %.117.lcssa.i = phi i32 [ %.01624.i, %.preheader.i ], [ %49, %.lr.ph.i ]
  %30 = icmp slt i32 %.117.lcssa.i, %28
  br i1 %30, label %.lr.ph25.i, label %.loopexit.loopexit, !llvm.loop !56

.lr.ph25.i:                                       ; preds = %26, %.loopexit.i
  %.sroa.0.1 = phi ptr [ %.sroa.0.2, %.loopexit.i ], [ %.sroa.0.043, %26 ]
  %.01624.i = phi i32 [ %.117.lcssa.i, %.loopexit.i ], [ 0, %26 ]
  %31 = ptrtoint ptr %.sroa.0.1 to i64
  %32 = sub i64 %22, %31
  %33 = trunc i64 %32 to i32
  %34 = icmp slt i32 %33, 1
  br i1 %34, label %read_len_table.exit, label %35

35:                                               ; preds = %.lr.ph25.i
  %36 = load i8, ptr %.sroa.0.1, align 1, !tbaa !47
  %37 = lshr i8 %36, 5
  %38 = getelementptr inbounds nuw i8, ptr %.sroa.0.1, i64 1
  %39 = icmp ult i8 %36, 32
  br i1 %39, label %40, label %48

40:                                               ; preds = %35
  %41 = ptrtoint ptr %38 to i64
  %42 = sub i64 %22, %41
  %43 = trunc i64 %42 to i32
  %44 = icmp slt i32 %43, 1
  br i1 %44, label %read_len_table.exit, label %45

45:                                               ; preds = %40
  %46 = getelementptr inbounds nuw i8, ptr %.sroa.0.1, i64 2
  %47 = load i8, ptr %38, align 1, !tbaa !47
  br label %48

48:                                               ; preds = %45, %35
  %.sroa.0.2 = phi ptr [ %46, %45 ], [ %38, %35 ]
  %.0.in.i = phi i8 [ %47, %45 ], [ %37, %35 ]
  %.0.i = zext i8 %.0.in.i to i32
  %49 = add nsw i32 %.01624.i, %.0.i
  %50 = icmp sgt i32 %49, %28
  br i1 %50, label %read_len_table.exit, label %.preheader.i

.preheader.i:                                     ; preds = %48
  %.not21.i = icmp eq i8 %.0.in.i, 0
  br i1 %.not21.i, label %.loopexit.i, label %.lr.ph.i

.lr.ph.i:                                         ; preds = %.preheader.i
  %51 = and i8 %36, 31
  %52 = sext i32 %.01624.i to i64
  %scevgep.i = getelementptr i8, ptr %27, i64 %52
  %53 = zext i8 %.0.in.i to i64
  tail call void @llvm.memset.p0.i64(ptr align 1 %scevgep.i, i8 %51, i64 %53, i1 false), !tbaa !47
  br label %.loopexit.i

read_len_table.exit:                              ; preds = %.lr.ph25.i, %40, %48
  tail call void (ptr, i32, ptr, ...) @av_log(ptr noundef null, i32 noundef 16, ptr noundef nonnull @.str.13) #9
  br label %.loopexit40

.loopexit.loopexit:                               ; preds = %.loopexit.i
  %.pre = load i32, ptr %21, align 4, !tbaa !44
  br label %.loopexit

.loopexit:                                        ; preds = %.loopexit.loopexit, %26
  %54 = phi i32 [ %28, %26 ], [ %.pre, %.loopexit.loopexit ]
  %.sroa.0.4.ph = phi ptr [ %.sroa.0.043, %26 ], [ %.sroa.0.2, %.loopexit.loopexit ]
  %55 = getelementptr inbounds nuw [4 x [16384 x i32]], ptr %23, i64 0, i64 %indvars.iv
  %56 = tail call i32 @ff_huffyuv_generate_bits_table(ptr noundef nonnull %55, ptr noundef nonnull %27, i32 noundef %54) #9
  %57 = icmp slt i32 %56, 0
  br i1 %57, label %.loopexit40, label %58

58:                                               ; preds = %.loopexit
  %59 = getelementptr inbounds nuw [8 x %struct.VLC], ptr %24, i64 0, i64 %indvars.iv
  tail call void @ff_vlc_free(ptr noundef nonnull %59) #9
  %60 = load i32, ptr %21, align 4, !tbaa !44
  %61 = tail call i32 @ff_vlc_init_sparse(ptr noundef nonnull %59, i32 noundef 12, i32 noundef %60, ptr noundef nonnull %27, i32 noundef 1, i32 noundef 1, ptr noundef nonnull %55, i32 noundef 4, i32 noundef 4, ptr noundef null, i32 noundef 0, i32 noundef 0, i32 noundef 0) #9
  %62 = icmp slt i32 %61, 0
  br i1 %62, label %.loopexit40, label %25

._crit_edge:                                      ; preds = %25, %11
  %.sroa.0.0.lcssa = phi ptr [ %1, %11 ], [ %.sroa.0.4.ph, %25 ]
  %63 = tail call fastcc i32 @generate_joint_tables(ptr noundef nonnull %0)
  %64 = icmp slt i32 %63, 0
  br i1 %64, label %.loopexit40, label %65

65:                                               ; preds = %._crit_edge
  %66 = ptrtoint ptr %.sroa.0.0.lcssa to i64
  %67 = ptrtoint ptr %1 to i64
  %68 = sub i64 %66, %67
  %69 = trunc i64 %68 to i32
  br label %.loopexit40

.loopexit40:                                      ; preds = %58, %.loopexit, %read_len_table.exit, %._crit_edge, %65
  %.031 = phi i32 [ %69, %65 ], [ -1094995529, %read_len_table.exit ], [ %63, %._crit_edge ], [ %61, %58 ], [ %56, %.loopexit ]
  ret i32 %.031
}